target datalayout = "e-m:e-p270:32:32-p271:32:32-p272:64:64-i64:64-i128:128-f80:128-n8:16:32:64-S128"
target triple = "x86_64-pc-linux-gnu"

%"class.std::__cxx11::basic_string" = type { %"struct.std::__cxx11::basic_string<char>::_Alloc_hider", i64, %union.anon }
%"struct.std::__cxx11::basic_string<char>::_Alloc_hider" = type { ptr }
%union.anon = type { i64, [8 x i8] }
%"class.osgeo::proj::File" = type <{ ptr, %"class.std::__cxx11::basic_string", %"class.std::__cxx11::basic_string", i8, [7 x i8] }>
%"class.osgeo::proj::FileStdio" = type { %"class.osgeo::proj::File.base", ptr, ptr }
%"class.osgeo::proj::File.base" = type <{ ptr, %"class.std::__cxx11::basic_string", %"class.std::__cxx11::basic_string", i8 }>

; Function Attrs: mustprogress nounwind uwtable
define linkonce_odr void @_ZNSt15__new_allocatorIcE10deallocateEPcm(ptr noundef nonnull align 1 dereferenceable(1) %0, ptr noundef %1, i64 noundef %2) #1 comdat align 2 {
  %4 = alloca ptr, align 8
  %5 = alloca ptr, align 8
  %6 = alloca i64, align 8
  store ptr %0, ptr %4, align 8, !tbaa !183
  store ptr %1, ptr %5, align 8, !tbaa !30
  store i64 %2, ptr %6, align 8, !tbaa !19
  %7 = load ptr, ptr %5, align 8, !tbaa !30
  %8 = load i64, ptr %6, align 8, !tbaa !19
  %9 = mul i64 %8, 1
  call void @_ZdlPvm(ptr noundef %7, i64 noundef %9) #24
  ret void
}

; Function Attrs: mustprogress nounwind uwtable
define linkonce_odr noundef ptr @_ZNSt19__ptr_traits_ptr_toIPKcS0_Lb0EE10pointer_toERS0_(ptr noundef nonnull align 1 dereferenceable(1) %0) #1 comdat align 2 {
  %2 = alloca ptr, align 8
  store ptr %0, ptr %2, align 8, !tbaa !30
  %3 = load ptr, ptr %2, align 8, !tbaa !30
  ret ptr %3
}

; Function Attrs: mustprogress uwtable
define linkonce_odr void @_ZNSt16allocator_traitsISaIcEE10deallocateERS0_Pcm(ptr noundef nonnull align 1 dereferenceable(1) %0, ptr noundef %1, i64 noundef %2) #0 comdat align 2 {
  %4 = alloca ptr, align 8
  %5 = alloca ptr, align 8
  %6 = alloca i64, align 8
  store ptr %0, ptr %4, align 8, !tbaa !48
  store ptr %1, ptr %5, align 8, !tbaa !30
  store i64 %2, ptr %6, align 8, !tbaa !19
  %7 = load ptr, ptr %4, align 8, !tbaa !48
  %8 = load ptr, ptr %5, align 8, !tbaa !30
  %9 = load i64, ptr %6, align 8, !tbaa !19
  call void @_ZNSt15__new_allocatorIcE10deallocateEPcm(ptr noundef nonnull align 1 dereferenceable(1) %7, ptr noundef %8, i64 noundef %9)
  ret void
}

; Function Attrs: mustprogress nounwind uwtable
define available_externally noundef nonnull align 1 dereferenceable(1) ptr @_ZNSt7__cxx1112basic_stringIcSt11char_traitsIcESaIcEE16_M_get_allocatorEv(ptr noundef nonnull align 8 dereferenceable(32) %0) #1 align 2 {
  %2 = alloca ptr, align 8
  store ptr %0, ptr %2, align 8, !tbaa !8
  %3 = load ptr, ptr %2, align 8
  %4 = getelementptr inbounds nuw %"class.std::__cxx11::basic_string", ptr %3, i32 0, i32 0
  ret ptr %4
}

; Function Attrs: mustprogress nounwind uwtable
define available_externally noundef ptr @_ZNKSt7__cxx1112basic_stringIcSt11char_traitsIcESaIcEE13_M_local_dataEv(ptr noundef nonnull align 8 dereferenceable(32) %0) #1 align 2 {
  %2 = alloca ptr, align 8
  store ptr %0, ptr %2, align 8, !tbaa !8
  %3 = load ptr, ptr %2, align 8
  %4 = getelementptr inbounds nuw %"class.std::__cxx11::basic_string", ptr %3, i32 0, i32 2
  %5 = getelementptr inbounds [16 x i8], ptr %4, i64 0, i64 0
  %6 = call noundef ptr @_ZNSt19__ptr_traits_ptr_toIPKcS0_Lb0EE10pointer_toERS0_(ptr noundef nonnull align 1 dereferenceable(1) %5) #11
  ret ptr %6
}

; Function Attrs: mustprogress nounwind uwtable
define available_externally noundef ptr @_ZNKSt7__cxx1112basic_stringIcSt11char_traitsIcESaIcEE7_M_dataEv(ptr noundef nonnull align 8 dereferenceable(32) %0) #1 align 2 {
  %2 = alloca ptr, align 8
  store ptr %0, ptr %2, align 8, !tbaa !8
  %3 = load ptr, ptr %2, align 8
  %4 = getelementptr inbounds nuw %"class.std::__cxx11::basic_string", ptr %3, i32 0, i32 0
  %5 = getelementptr inbounds nuw %"struct.std::__cxx11::basic_string<char>::_Alloc_hider", ptr %4, i32 0, i32 0
  %6 = load ptr, ptr %5, align 8, !tbaa !192
  ret ptr %6
}

; Function Attrs: mustprogress nounwind uwtable
define available_externally void @_ZNSt7__cxx1112basic_stringIcSt11char_traitsIcESaIcEE10_M_destroyEm(ptr noundef nonnull align 8 dereferenceable(32) %0, i64 noundef %1) #1 align 2 personality ptr @__gxx_personality_v0 {
  %3 = alloca ptr, align 8
  %4 = alloca i64, align 8
  store ptr %0, ptr %3, align 8, !tbaa !8
  store i64 %1, ptr %4, align 8, !tbaa !19
  %5 = load ptr, ptr %3, align 8
  %6 = call noundef nonnull align 1 dereferenceable(1) ptr @_ZNSt7__cxx1112basic_stringIcSt11char_traitsIcESaIcEE16_M_get_allocatorEv(ptr noundef nonnull align 8 dereferenceable(32) %5)
  %7 = call noundef ptr @_ZNKSt7__cxx1112basic_stringIcSt11char_traitsIcESaIcEE7_M_dataEv(ptr noundef nonnull align 8 dereferenceable(32) %5)
  %8 = load i64, ptr %4, align 8, !tbaa !19
  %9 = add i64 %8, 1
  invoke void @_ZNSt16allocator_traitsISaIcEE10deallocateERS0_Pcm(ptr noundef nonnull align 1 dereferenceable(1) %6, ptr noundef %7, i64 noundef %9)
          to label %10 unwind label %11

10:                                               ; preds = %2
  ret void

11:                                               ; preds = %2
  %12 = landingpad { ptr, i32 }
          catch ptr null
  %13 = extractvalue { ptr, i32 } %12, 0
  call void @__clang_call_terminate(ptr %13) #23
  unreachable
}

; Function Attrs: mustprogress uwtable
define available_externally noundef zeroext i1 @_ZNKSt7__cxx1112basic_stringIcSt11char_traitsIcESaIcEE11_M_is_localEv(ptr noundef nonnull align 8 dereferenceable(32) %0) #0 align 2 {
  %2 = alloca i1, align 1
  %3 = alloca ptr, align 8
  store ptr %0, ptr %3, align 8, !tbaa !8
  %4 = load ptr, ptr %3, align 8
  %5 = call noundef ptr @_ZNKSt7__cxx1112basic_stringIcSt11char_traitsIcESaIcEE7_M_dataEv(ptr noundef nonnull align 8 dereferenceable(32) %4)
  %6 = call noundef ptr @_ZNKSt7__cxx1112basic_stringIcSt11char_traitsIcESaIcEE13_M_local_dataEv(ptr noundef nonnull align 8 dereferenceable(32) %4)
  %7 = icmp eq ptr %5, %6
  br i1 %7, label %8, label %14

8:                                                ; preds = %1
  %9 = getelementptr inbounds nuw %"class.std::__cxx11::basic_string", ptr %4, i32 0, i32 1
  %10 = load i64, ptr %9, align 8, !tbaa !31
  %11 = icmp ugt i64 %10, 15
  br i1 %11, label %12, label %13

12:                                               ; preds = %8
  unreachable

13:                                               ; preds = %8
  store i1 true, ptr %2, align 1
  br label %15

14:                                               ; preds = %1
  store i1 false, ptr %2, align 1
  br label %15

15:                                               ; preds = %14, %13
  %16 = load i1, ptr %2, align 1
  ret i1 %16
}

; Function Attrs: mustprogress nounwind uwtable
define linkonce_odr void @_ZNSt15__new_allocatorIcED2Ev(ptr noundef nonnull align 1 dereferenceable(1) %0) unnamed_addr #1 comdat align 2 {
  %2 = alloca ptr, align 8
  store ptr %0, ptr %2, align 8, !tbaa !183
  ret void
}

; Function Attrs: mustprogress uwtable
define available_externally void @_ZNSt7__cxx1112basic_stringIcSt11char_traitsIcESaIcEE10_M_disposeEv(ptr noundef nonnull align 8 dereferenceable(32) %0) #0 align 2 {
  %2 = alloca ptr, align 8
  store ptr %0, ptr %2, align 8, !tbaa !8
  %3 = load ptr, ptr %2, align 8
  %4 = call noundef zeroext i1 @_ZNKSt7__cxx1112basic_stringIcSt11char_traitsIcESaIcEE11_M_is_localEv(ptr noundef nonnull align 8 dereferenceable(32) %3)
  br i1 %4, label %8, label %5

5:                                                ; preds = %1
  %6 = getelementptr inbounds nuw %"class.std::__cxx11::basic_string", ptr %3, i32 0, i32 2
  %7 = load i64, ptr %6, align 8, !tbaa !23
  call void @_ZNSt7__cxx1112basic_stringIcSt11char_traitsIcESaIcEE10_M_destroyEm(ptr noundef nonnull align 8 dereferenceable(32) %3, i64 noundef %7) #11
  br label %8

8:                                                ; preds = %5, %1
  ret void
}

; Function Attrs: mustprogress nounwind uwtable
define available_externally void @_ZNSt7__cxx1112basic_stringIcSt11char_traitsIcESaIcEED2Ev(ptr noundef nonnull align 8 dereferenceable(32) %0) unnamed_addr #1 align 2 personality ptr @__gxx_personality_v0 {
  %2 = alloca ptr, align 8
  store ptr %0, ptr %2, align 8, !tbaa !8
  %3 = load ptr, ptr %2, align 8
  invoke void @_ZNSt7__cxx1112basic_stringIcSt11char_traitsIcESaIcEE10_M_disposeEv(ptr noundef nonnull align 8 dereferenceable(32) %3)
          to label %4 unwind label %6

4:                                                ; preds = %1
  %5 = getelementptr inbounds nuw %"class.std::__cxx11::basic_string", ptr %3, i32 0, i32 0
  call void @_ZNSt15__new_allocatorIcED2Ev(ptr noundef nonnull align 8 dereferenceable(8) %5) #11
  ret void

6:                                                ; preds = %1
  %7 = landingpad { ptr, i32 }
          catch ptr null
  %8 = extractvalue { ptr, i32 } %7, 0
  call void @__clang_call_terminate(ptr %8) #23
  unreachable
}

; Function Attrs: noinline noreturn nounwind uwtable
define linkonce_odr hidden void @__clang_call_terminate(ptr noundef %0) #6 comdat {
  %2 = call ptr @__cxa_begin_catch(ptr %0) #11
  call void @_ZSt9terminatev() #23
  unreachable
}

; Function Attrs: mustprogress nounwind uwtable
define void @_ZN5osgeo4proj4FileD2Ev(ptr noundef nonnull align 8 dereferenceable(73) %0) unnamed_addr #1 align 2 {
  %2 = alloca ptr, align 8
  store ptr %0, ptr %2, align 8, !tbaa !3
  %3 = load ptr, ptr %2, align 8
  store ptr getelementptr inbounds inrange(-16, 64) ({ [10 x ptr] }, ptr @_ZTVN5osgeo4proj4FileE, i32 0, i32 0, i32 2), ptr %3, align 8, !tbaa !10
  %4 = getelementptr inbounds nuw %"class.osgeo::proj::File", ptr %3, i32 0, i32 2
  call void @_ZNSt7__cxx1112basic_stringIcSt11char_traitsIcESaIcEED2Ev(ptr noundef nonnull align 8 dereferenceable(32) %4) #11
  %5 = getelementptr inbounds nuw %"class.osgeo::proj::File", ptr %3, i32 0, i32 1
  call void @_ZNSt7__cxx1112basic_stringIcSt11char_traitsIcESaIcEED2Ev(ptr noundef nonnull align 8 dereferenceable(32) %5) #11
  ret void
}

; Function Attrs: mustprogress nounwind uwtable
define hidden void @_ZN5osgeo4proj9FileStdioD2Ev(ptr noundef nonnull align 8 dereferenceable(96) %0) unnamed_addr #1 align 2 personality ptr @__gxx_personality_v0 {
  %2 = alloca ptr, align 8
  store ptr %0, ptr %2, align 8, !tbaa !32
  %3 = load ptr, ptr %2, align 8
  store ptr getelementptr inbounds inrange(-16, 64) ({ [10 x ptr] }, ptr @_ZTVN5osgeo4proj9FileStdioE, i32 0, i32 0, i32 2), ptr %3, align 8, !tbaa !10
  %4 = getelementptr inbounds nuw %"class.osgeo::proj::FileStdio", ptr %3, i32 0, i32 2
  %5 = load ptr, ptr %4, align 8, !tbaa !34
  %6 = invoke i32 @fclose(ptr noundef %5)
          to label %7 unwind label %8

7:                                                ; preds = %1
  call void @_ZN5osgeo4proj4FileD2Ev(ptr noundef nonnull align 8 dereferenceable(73) %3) #11
  ret void

8:                                                ; preds = %1
  %9 = landingpad { ptr, i32 }
          catch ptr null
  %10 = extractvalue { ptr, i32 } %9, 0
  call void @__clang_call_terminate(ptr %10) #23
  unreachable
}